; Function Attrs: nounwind uwtable
define hidden ptr @SDL_GL_GetCurrentWindow_REAL() local_unnamed_addr #0 {
  %1 = load ptr, ptr @_this, align 8
  %.not = icmp eq ptr %1, null
  br i1 %.not, label %2, label %4

2:                                                ; preds = %0
  %3 = tail call zeroext i1 (ptr, ...) @SDL_SetError_REAL(ptr noundef nonnull @.str.1) #19
  br label %7

4:                                                ; preds = %0
  %5 = getelementptr inbounds nuw i8, ptr %1, i64 1352
  %6 = tail call ptr @SDL_GetTLS_REAL(ptr noundef nonnull %5) #19
  br label %7

7:                                                ; preds = %4, %2
  %.0 = phi ptr [ %6, %4 ], [ null, %2 ]
  ret ptr %.0
}